; Function Attrs: mustprogress uwtable
define internal void @"_ZNSt17_Function_handlerIFvRN19OpenColorIO_v2_5dev10OpRcPtrVecEEZNS0_6CAMERA5CANON11RegisterAllERNS0_28BuiltinTransformRegistryImplEE3$_3E9_M_invokeERKSt9_Any_dataS2_"(ptr nonnull readnone align 8 captures(none) %0, ptr noundef nonnull align 8 dereferenceable(144) %1) #4 align 2 personality ptr @__gxx_personality_v0 {
  %3 = alloca %"class.std::function", align 8
  call void @llvm.lifetime.start.p0(i64 32, ptr nonnull %3)
  %4 = getelementptr inbounds nuw i8, ptr %3, i64 16
  %5 = getelementptr inbounds nuw i8, ptr %3, i64 24
  call void @llvm.memset.p0.i64(ptr noundef nonnull align 8 dereferenceable(32) %3, i8 0, i64 16, i1 false)
  store ptr @"_ZNSt17_Function_handlerIFfdEZN19OpenColorIO_v2_5dev11CANON_CLOG319GenerateOpsToLinearERNS1_10OpRcPtrVecEE3$_0E9_M_invokeERKSt9_Any_dataOd", ptr %5, align 8, !tbaa !3
  store ptr @"_ZNSt17_Function_handlerIFfdEZN19OpenColorIO_v2_5dev11CANON_CLOG319GenerateOpsToLinearERNS1_10OpRcPtrVecEE3$_0E10_M_managerERSt9_Any_dataRKS7_St18_Manager_operation", ptr %4, align 8, !tbaa !9
  invoke void @_ZN19OpenColorIO_v2_5dev9CreateLutERNS_10OpRcPtrVecEmSt8functionIFfdEE(ptr noundef nonnull align 8 dereferenceable(144) %1, i64 noundef 4096, ptr noundef nonnull %3)
          to label %6 unwind label %13

6:                                                ; preds = %2
  %7 = load ptr, ptr %4, align 8, !tbaa !9
  %.not.i.i.i.i.i = icmp eq ptr %7, null
  br i1 %.not.i.i.i.i.i, label %"_ZSt10__invoke_rIvRZN19OpenColorIO_v2_5dev6CAMERA5CANON11RegisterAllERNS0_28BuiltinTransformRegistryImplEE3$_3JRNS0_10OpRcPtrVecEEENSt9enable_ifIXsr6__and_ISt7is_voidIT_ESt14__is_invocableIT0_JDpT1_EEEE5valueESB_E4typeEOSE_DpOSF_.exit", label %8

8:                                                ; preds = %6
  %9 = invoke noundef zeroext i1 %7(ptr noundef nonnull align 8 dereferenceable(32) %3, ptr noundef nonnull align 8 dereferenceable(32) %3, i32 noundef 3)
          to label %"_ZSt10__invoke_rIvRZN19OpenColorIO_v2_5dev6CAMERA5CANON11RegisterAllERNS0_28BuiltinTransformRegistryImplEE3$_3JRNS0_10OpRcPtrVecEEENSt9enable_ifIXsr6__and_ISt7is_voidIT_ESt14__is_invocableIT0_JDpT1_EEEE5valueESB_E4typeEOSE_DpOSF_.exit" unwind label %10

10:                                               ; preds = %8
  %11 = landingpad { ptr, i32 }
          catch ptr null
  %12 = extractvalue { ptr, i32 } %11, 0
  call void @__clang_call_terminate(ptr %12) #14
  unreachable

13:                                               ; preds = %2
  %14 = landingpad { ptr, i32 }
          cleanup
  %15 = load ptr, ptr %4, align 8, !tbaa !9
  %.not.i2.i.i.i.i = icmp eq ptr %15, null
  br i1 %.not.i2.i.i.i.i, label %_ZNSt14_Function_baseD2Ev.exit3.i.i.i.i, label %16

16:                                               ; preds = %13
  %17 = invoke noundef zeroext i1 %15(ptr noundef nonnull align 8 dereferenceable(32) %3, ptr noundef nonnull align 8 dereferenceable(32) %3, i32 noundef 3)
          to label %_ZNSt14_Function_baseD2Ev.exit3.i.i.i.i unwind label %18

18:                                               ; preds = %16
  %19 = landingpad { ptr, i32 }
          catch ptr null
  %20 = extractvalue { ptr, i32 } %19, 0
  call void @__clang_call_terminate(ptr %20) #14
  unreachable

_ZNSt14_Function_baseD2Ev.exit3.i.i.i.i:          ; preds = %16, %13
  resume { ptr, i32 } %14

"_ZSt10__invoke_rIvRZN19OpenColorIO_v2_5dev6CAMERA5CANON11RegisterAllERNS0_28BuiltinTransformRegistryImplEE3$_3JRNS0_10OpRcPtrVecEEENSt9enable_ifIXsr6__and_ISt7is_voidIT_ESt14__is_invocableIT0_JDpT1_EEEE5valueESB_E4typeEOSE_DpOSF_.exit": ; preds = %6, %8
  call void @llvm.lifetime.end.p0(i64 32, ptr nonnull %3)
  ret void
}